target datalayout = "e-m:e-p270:32:32-p271:32:32-p272:64:64-i64:64-i128:128-f80:128-n8:16:32:64-S128"
target triple = "x86_64-pc-linux-gnu"

%"struct.std::__detail::_Hash_node_base" = type { ptr }
%"struct.std::__detail::_Prime_rehash_policy" = type { float, i64 }
%"class.std::__cxx11::basic_string" = type { %"struct.std::__cxx11::basic_string<char>::_Alloc_hider", i64, %union.anon }
%"struct.std::__cxx11::basic_string<char>::_Alloc_hider" = type { ptr }
%union.anon = type { i64, [8 x i8] }
%class.vtkSmartPointerBase = type { ptr }
%"class.open3d::core::IsDevice" = type { ptr }
%"class.open3d::core::Device" = type { i32, i32 }
%class.vtkSmartPointer.348 = type { %class.vtkSmartPointerBase }
%"class.open3d::t::geometry::Geometry" = type { %"class.open3d::core::IsDevice", i32, i32, %"class.std::__cxx11::basic_string" }
%"class.open3d::t::geometry::DrawableGeometry" = type { %"class.open3d::visualization::rendering::Material" }
%"class.open3d::visualization::rendering::Material" = type { %"class.std::__cxx11::basic_string", %"class.std::unordered_map.349", %"class.std::unordered_map.369", %"class.std::unordered_map.383" }
%"class.std::unordered_map.349" = type { %"class.std::_Hashtable.350" }
%"class.std::_Hashtable.350" = type { ptr, i64, %"struct.std::__detail::_Hash_node_base", i64, %"struct.std::__detail::_Prime_rehash_policy", ptr }
%"class.std::unordered_map.369" = type { %"class.std::_Hashtable.370" }
%"class.std::_Hashtable.370" = type { ptr, i64, %"struct.std::__detail::_Hash_node_base", i64, %"struct.std::__detail::_Prime_rehash_policy", ptr }
%"class.std::unordered_map.383" = type { %"class.std::_Hashtable.384" }
%"class.std::_Hashtable.384" = type { ptr, i64, %"struct.std::__detail::_Hash_node_base", i64, %"struct.std::__detail::_Prime_rehash_policy", ptr }
%"class.open3d::t::geometry::TensorMap" = type { %"class.std::unordered_map.397", %"class.std::__cxx11::basic_string" }
%"class.std::unordered_map.397" = type { %"class.std::_Hashtable.398" }
%"class.std::_Hashtable.398" = type { ptr, i64, %"struct.std::__detail::_Hash_node_base", i64, %"struct.std::__detail::_Prime_rehash_policy", ptr }
%"class.open3d::t::geometry::LineSet" = type { %"class.open3d::t::geometry::Geometry", %"class.open3d::t::geometry::DrawableGeometry", %"class.open3d::core::Device", %"class.open3d::t::geometry::TensorMap", %"class.open3d::t::geometry::TensorMap" }

; Function Attrs: mustprogress nounwind ssp uwtable
define linkonce_odr noundef ptr @_ZNK15vtkSmartPointerI11vtkPolyDataEcvPS0_Ev(ptr noundef nonnull align 8 dereferenceable(8) %0) #4 comdat align 2 {
  %2 = alloca ptr, align 8
  store ptr %0, ptr %2, align 8, !tbaa !1207
  %3 = load ptr, ptr %2, align 8
  %4 = getelementptr inbounds nuw %class.vtkSmartPointerBase, ptr %3, i32 0, i32 0
  %5 = load ptr, ptr %4, align 8, !tbaa !889
  ret ptr %5
}

; Function Attrs: mustprogress ssp uwtable
define void @_ZN6open3d1t8geometry8vtkutils22ExtrudeRotationLineSetERKNS1_10PointCloudEdRKNS_4core6TensorEidb(ptr dead_on_unwind noalias writable sret(%"class.open3d::t::geometry::LineSet") align 8 %0, ptr noundef nonnull align 8 dereferenceable(344) %1, double noundef %2, ptr noundef nonnull align 8 dereferenceable(160) %3, i32 noundef %4, double noundef %5, i1 noundef zeroext %6) #6 personality ptr @__gxx_personality_v0 {
  %8 = alloca ptr, align 8
  %9 = alloca ptr, align 8
  %10 = alloca double, align 8
  %11 = alloca ptr, align 8
  %12 = alloca i32, align 4
  %13 = alloca double, align 8
  %14 = alloca i8, align 1
  %15 = alloca %class.vtkSmartPointer.348, align 8
  %16 = alloca ptr, align 8
  %17 = alloca i32, align 4
  store ptr %0, ptr %8, align 8
  store ptr %1, ptr %9, align 8, !tbaa !1205
  store double %2, ptr %10, align 8, !tbaa !220
  store ptr %3, ptr %11, align 8, !tbaa !844
  store i32 %4, ptr %12, align 4, !tbaa !121
  store double %5, ptr %13, align 8, !tbaa !220
  %18 = zext i1 %6 to i8
  store i8 %18, ptr %14, align 1, !tbaa !98
  call void @llvm.lifetime.start.p0(i64 8, ptr %15) #3
  %19 = load ptr, ptr %9, align 8, !tbaa !1205
  %20 = load double, ptr %10, align 8, !tbaa !220
  %21 = load ptr, ptr %11, align 8, !tbaa !844
  %22 = load i32, ptr %12, align 4, !tbaa !121
  %23 = load double, ptr %13, align 8, !tbaa !220
  %24 = load i8, ptr %14, align 1, !tbaa !98, !range !116, !noundef !117
  %25 = trunc i8 %24 to i1
  call void @_ZN6open3d1t8geometry8vtkutilsL23ExtrudeRotationPolyDataERKNS1_8GeometryEdRKNS_4core6TensorEidb(ptr dead_on_unwind writable sret(%class.vtkSmartPointer.348) align 8 %15, ptr noundef nonnull align 8 dereferenceable(48) %19, double noundef %20, ptr noundef nonnull align 8 dereferenceable(160) %21, i32 noundef %22, double noundef %23, i1 noundef zeroext %25)
  %26 = call noundef ptr @_ZNK15vtkSmartPointerI11vtkPolyDataEcvPS0_Ev(ptr noundef nonnull align 8 dereferenceable(8) %15) #3
  invoke void @_ZN6open3d1t8geometry8vtkutils28CreateLineSetFromVtkPolyDataEP11vtkPolyDatab(ptr dead_on_unwind writable sret(%"class.open3d::t::geometry::LineSet") align 8 %0, ptr noundef %26, i1 noundef zeroext false)
          to label %27 unwind label %28

27:                                               ; preds = %7
  call void @_ZN19vtkSmartPointerBaseD2Ev(ptr noundef nonnull align 8 dereferenceable(8) %15) #3
  call void @llvm.lifetime.end.p0(i64 8, ptr %15) #3
  ret void

28:                                               ; preds = %7
  %29 = landingpad { ptr, i32 }
          cleanup
  %30 = extractvalue { ptr, i32 } %29, 0
  store ptr %30, ptr %16, align 8
  %31 = extractvalue { ptr, i32 } %29, 1
  store i32 %31, ptr %17, align 4
  call void @_ZN19vtkSmartPointerBaseD2Ev(ptr noundef nonnull align 8 dereferenceable(8) %15) #3
  call void @llvm.lifetime.end.p0(i64 8, ptr %15) #3
  br label %32

32:                                               ; preds = %28
  %33 = load ptr, ptr %16, align 8
  %34 = load i32, ptr %17, align 4
  %35 = insertvalue { ptr, i32 } poison, ptr %33, 0
  %36 = insertvalue { ptr, i32 } %35, i32 %34, 1
  resume { ptr, i32 } %36
}